; ModuleID = 'source-C-CXX/18/1330.c'
source_filename = "source-C-CXX/18/1330.c"
target datalayout = "e-m:e-p270:32:32-p271:32:32-p272:64:64-i64:64-f80:128-n8:16:32:64-S128"
target triple = "x86_64-pc-linux-gnu"

@.str = private unnamed_addr constant [5 x i8] c"%s%s\00", align 1
@.str.2 = private unnamed_addr constant [3 x i8] c"%s\00", align 1

; Function Attrs: nounwind sspstrong uwtable
define dso_local i32 @main() local_unnamed_addr #0 {
  %1 = alloca [101 x i8], align 16
  %2 = alloca [101 x i8], align 16
  %3 = alloca [101 x i8], align 16
  %4 = alloca [101 x [101 x i8]], align 16
  %5 = getelementptr inbounds [101 x i8], [101 x i8]* %1, i64 0, i64 0
  call void @llvm.lifetime.start.p0i8(i64 101, i8* nonnull %5) #7
  %6 = call i32 (i8*, ...) bitcast (i32 (...)* @gets to i32 (i8*, ...)*)(i8* nonnull %5) #7
  %7 = getelementptr inbounds [101 x i8], [101 x i8]* %2, i64 0, i64 0
  call void @llvm.lifetime.start.p0i8(i64 101, i8* nonnull %7) #7
  %8 = getelementptr inbounds [101 x i8], [101 x i8]* %3, i64 0, i64 0
  call void @llvm.lifetime.start.p0i8(i64 101, i8* nonnull %8) #7
  %9 = call i32 (i8*, ...) @__isoc99_scanf(i8* getelementptr inbounds ([5 x i8], [5 x i8]* @.str, i64 0, i64 0), i8* nonnull %7, i8* nonnull %8)
  %10 = call i64 @strlen(i8* noundef nonnull %5) #8
  %11 = trunc i64 %10 to i32
  %12 = getelementptr inbounds [101 x [101 x i8]], [101 x [101 x i8]]* %4, i64 0, i64 0, i64 0
  call void @llvm.lifetime.start.p0i8(i64 10201, i8* nonnull %12) #7
  %13 = icmp sgt i32 %11, 0
  br i1 %13, label %14, label %39

14:                                               ; preds = %0
  %15 = and i64 %10, 4294967295
  br label %16

16:                                               ; preds = %14, %34
  %17 = phi i64 [ 0, %14 ], [ %35, %34 ]
  %18 = phi i32 [ 0, %14 ], [ %37, %34 ]
  %19 = phi i32 [ 0, %14 ], [ %36, %34 ]
  %20 = getelementptr inbounds [101 x i8], [101 x i8]* %1, i64 0, i64 %17
  %21 = load i8, i8* %20, align 1, !tbaa !5
  %22 = icmp eq i8 %21, 32
  br i1 %22, label %25, label %23

23:                                               ; preds = %16
  %24 = add nuw nsw i64 %17, 1
  br label %34

25:                                               ; preds = %16
  store i8 0, i8* %20, align 1, !tbaa !5
  %26 = sext i32 %19 to i64
  %27 = getelementptr inbounds [101 x [101 x i8]], [101 x [101 x i8]]* %4, i64 0, i64 %26, i64 0
  %28 = sext i32 %18 to i64
  %29 = getelementptr inbounds [101 x i8], [101 x i8]* %1, i64 0, i64 %28
  %30 = call i8* @strcpy(i8* noundef nonnull %27, i8* noundef nonnull %29) #7
  %31 = add nsw i32 %19, 1
  %32 = add nuw nsw i64 %17, 1
  %33 = trunc i64 %32 to i32
  br label %34

34:                                               ; preds = %23, %25
  %35 = phi i64 [ %24, %23 ], [ %32, %25 ]
  %36 = phi i32 [ %19, %23 ], [ %31, %25 ]
  %37 = phi i32 [ %18, %23 ], [ %33, %25 ]
  %38 = icmp eq i64 %35, %15
  br i1 %38, label %39, label %16, !llvm.loop !8

39:                                               ; preds = %34, %0
  %40 = phi i32 [ 0, %0 ], [ %36, %34 ]
  %41 = phi i32 [ 0, %0 ], [ %37, %34 ]
  %42 = sext i32 %40 to i64
  %43 = getelementptr inbounds [101 x [101 x i8]], [101 x [101 x i8]]* %4, i64 0, i64 %42, i64 0
  %44 = sext i32 %41 to i64
  %45 = getelementptr inbounds [101 x i8], [101 x i8]* %1, i64 0, i64 %44
  %46 = call i8* @strcpy(i8* noundef nonnull %43, i8* noundef nonnull %45) #7
  %47 = icmp slt i32 %40, 0
  br i1 %47, label %66, label %48

48:                                               ; preds = %39
  %49 = add nuw i32 %40, 1
  %50 = zext i32 %49 to i64
  %51 = call i32 @strcmp(i8* noundef nonnull %12, i8* noundef nonnull %7) #8
  %52 = icmp eq i32 %51, 0
  %53 = select i1 %52, i8* %8, i8* %12
  %54 = call i32 (i8*, ...) @printf(i8* nonnull dereferenceable(1) getelementptr inbounds ([3 x i8], [3 x i8]* @.str.2, i64 0, i64 0), i8* nonnull %53)
  %55 = icmp eq i32 %40, 0
  br i1 %55, label %66, label %56

56:                                               ; preds = %48, %56
  %57 = phi i64 [ %64, %56 ], [ 1, %48 ]
  %58 = call i32 @putchar(i32 32)
  %59 = getelementptr inbounds [101 x [101 x i8]], [101 x [101 x i8]]* %4, i64 0, i64 %57, i64 0
  %60 = call i32 @strcmp(i8* noundef nonnull %59, i8* noundef nonnull %7) #8
  %61 = icmp eq i32 %60, 0
  %62 = select i1 %61, i8* %8, i8* %59
  %63 = call i32 (i8*, ...) @printf(i8* nonnull dereferenceable(1) getelementptr inbounds ([3 x i8], [3 x i8]* @.str.2, i64 0, i64 0), i8* nonnull %62)
  %64 = add nuw nsw i64 %57, 1
  %65 = icmp eq i64 %64, %50
  br i1 %65, label %66, label %56, !llvm.loop !10

66:                                               ; preds = %56, %48, %39
  call void @llvm.lifetime.end.p0i8(i64 10201, i8* nonnull %12) #7
  call void @llvm.lifetime.end.p0i8(i64 101, i8* nonnull %8) #7
  call void @llvm.lifetime.end.p0i8(i64 101, i8* nonnull %7) #7
  call void @llvm.lifetime.end.p0i8(i64 101, i8* nonnull %5) #7
  ret i32 0
}

; Function Attrs: argmemonly mustprogress nofree nosync nounwind willreturn
declare void @llvm.lifetime.start.p0i8(i64 immarg, i8* nocapture) #1

declare i32 @gets(...) local_unnamed_addr #2

; Function Attrs: nofree nounwind
declare noundef i32 @__isoc99_scanf(i8* nocapture noundef readonly, ...) local_unnamed_addr #3

; Function Attrs: argmemonly mustprogress nofree nounwind readonly willreturn
declare i64 @strlen(i8* nocapture) local_unnamed_addr #4

; Function Attrs: argmemonly mustprogress nofree nounwind willreturn
declare i8* @strcpy(i8* noalias returned writeonly, i8* noalias nocapture readonly) local_unnamed_addr #5

; Function Attrs: nofree nounwind
declare noundef i32 @printf(i8* nocapture noundef readonly, ...) local_unnamed_addr #3

; Function Attrs: argmemonly mustprogress nofree nounwind readonly willreturn
declare i32 @strcmp(i8* nocapture, i8* nocapture) local_unnamed_addr #4

; Function Attrs: argmemonly mustprogress nofree nosync nounwind willreturn
declare void @llvm.lifetime.end.p0i8(i64 immarg, i8* nocapture) #1

; Function Attrs: nofree nounwind
declare noundef i32 @putchar(i32 noundef) local_unnamed_addr #6


!llvm.module.flags = !{!0, !1, !2, !3}
!llvm.ident = !{!4}

!0 = !{i32 1, !"wchar_size", i32 4}
!1 = !{i32 7, !"PIC Level", i32 2}
!2 = !{i32 7, !"PIE Level", i32 2}
!3 = !{i32 7, !"uwtable", i32 1}
!4 = !{!"clang version 13.0.0"}
!5 = !{!6, !6, i64 0}
!6 = !{!"omnipotent char", !7, i64 0}
!7 = !{!"Simple C/C++ TBAA"}
!8 = distinct !{!8, !9}
!9 = !{!"llvm.loop.mustprogress"}
!10 = distinct !{!10, !9, !11}
!11 = !{!"llvm.loop.peeled.count", i32 1}
